target datalayout = "e-m:e-p270:32:32-p271:32:32-p272:64:64-i64:64-i128:128-f80:128-n8:16:32:64-S128"
target triple = "x86_64-pc-linux-gnu"

%"class.icu_77::FieldPositionHandler" = type <{ ptr, i32, [4 x i8] }>
%"class.icu_77::FieldPositionOnlyHandler" = type <{ %"class.icu_77::FieldPositionHandler.base", [4 x i8], ptr, i8, i8, [6 x i8] }>
%"class.icu_77::FieldPositionHandler.base" = type <{ ptr, i32 }>
%"class.icu_77::FieldPosition" = type <{ %"class.icu_77::UObject", i32, i32, i32, [4 x i8] }>
%"class.icu_77::UObject" = type { ptr }

; Function Attrs: mustprogress nounwind uwtable
define linkonce_odr void @_ZN6icu_7713FieldPosition11setEndIndexEi(ptr noundef nonnull align 8 dereferenceable(20) %0, i32 noundef %1) #0 comdat align 2 {
  %3 = alloca ptr, align 8
  %4 = alloca i32, align 4
  store ptr %0, ptr %3, align 8, !tbaa !14
  store i32 %1, ptr %4, align 4, !tbaa !8
  %5 = load ptr, ptr %3, align 8
  %6 = load i32, ptr %4, align 4, !tbaa !8
  %7 = getelementptr inbounds nuw %"class.icu_77::FieldPosition", ptr %5, i32 0, i32 3
  store i32 %6, ptr %7, align 8, !tbaa !26
  ret void
}

; Function Attrs: mustprogress nounwind uwtable
define linkonce_odr void @_ZN6icu_7713FieldPosition13setBeginIndexEi(ptr noundef nonnull align 8 dereferenceable(20) %0, i32 noundef %1) #0 comdat align 2 {
  %3 = alloca ptr, align 8
  %4 = alloca i32, align 4
  store ptr %0, ptr %3, align 8, !tbaa !14
  store i32 %1, ptr %4, align 4, !tbaa !8
  %5 = load ptr, ptr %3, align 8
  %6 = load i32, ptr %4, align 4, !tbaa !8
  %7 = getelementptr inbounds nuw %"class.icu_77::FieldPosition", ptr %5, i32 0, i32 2
  store i32 %6, ptr %7, align 4, !tbaa !25
  ret void
}

; Function Attrs: mustprogress nounwind uwtable
define linkonce_odr noundef i32 @_ZNK6icu_7713FieldPosition8getFieldEv(ptr noundef nonnull align 8 dereferenceable(20) %0) #0 comdat align 2 {
  %2 = alloca ptr, align 8
  store ptr %0, ptr %2, align 8, !tbaa !14
  %3 = load ptr, ptr %2, align 8
  %4 = getelementptr inbounds nuw %"class.icu_77::FieldPosition", ptr %3, i32 0, i32 1
  %5 = load i32, ptr %4, align 8, !tbaa !22
  ret i32 %5
}

; Function Attrs: mustprogress uwtable
define void @_ZN6icu_7724FieldPositionOnlyHandler12addAttributeEiii(ptr noundef nonnull align 8 dereferenceable(26) %0, i32 noundef %1, i32 noundef %2, i32 noundef %3) unnamed_addr #4 align 2 {
  %5 = alloca ptr, align 8
  %6 = alloca i32, align 4
  %7 = alloca i32, align 4
  %8 = alloca i32, align 4
  store ptr %0, ptr %5, align 8, !tbaa !12
  store i32 %1, ptr %6, align 4, !tbaa !8
  store i32 %2, ptr %7, align 4, !tbaa !8
  store i32 %3, ptr %8, align 4, !tbaa !8
  %9 = load ptr, ptr %5, align 8
  %10 = getelementptr inbounds nuw %"class.icu_77::FieldPositionOnlyHandler", ptr %9, i32 0, i32 2
  %11 = load ptr, ptr %10, align 8, !tbaa !21
  %12 = call noundef i32 @_ZNK6icu_7713FieldPosition8getFieldEv(ptr noundef nonnull align 8 dereferenceable(20) %11)
  %13 = load i32, ptr %6, align 4, !tbaa !8
  %14 = icmp eq i32 %12, %13
  br i1 %14, label %15, label %37

15:                                               ; preds = %4
  %16 = getelementptr inbounds nuw %"class.icu_77::FieldPositionOnlyHandler", ptr %9, i32 0, i32 3
  %17 = load i8, ptr %16, align 8, !tbaa !18
  %18 = icmp ne i8 %17, 0
  br i1 %18, label %19, label %23

19:                                               ; preds = %15
  %20 = getelementptr inbounds nuw %"class.icu_77::FieldPositionOnlyHandler", ptr %9, i32 0, i32 4
  %21 = load i8, ptr %20, align 1, !tbaa !20
  %22 = icmp ne i8 %21, 0
  br i1 %22, label %37, label %23

23:                                               ; preds = %19, %15
  %24 = getelementptr inbounds nuw %"class.icu_77::FieldPositionOnlyHandler", ptr %9, i32 0, i32 4
  store i8 1, ptr %24, align 1, !tbaa !20
  %25 = getelementptr inbounds nuw %"class.icu_77::FieldPositionOnlyHandler", ptr %9, i32 0, i32 2
  %26 = load ptr, ptr %25, align 8, !tbaa !21
  %27 = load i32, ptr %7, align 4, !tbaa !8
  %28 = getelementptr inbounds nuw %"class.icu_77::FieldPositionHandler", ptr %9, i32 0, i32 1
  %29 = load i32, ptr %28, align 8, !tbaa !10
  %30 = add nsw i32 %27, %29
  call void @_ZN6icu_7713FieldPosition13setBeginIndexEi(ptr noundef nonnull align 8 dereferenceable(20) %26, i32 noundef %30)
  %31 = getelementptr inbounds nuw %"class.icu_77::FieldPositionOnlyHandler", ptr %9, i32 0, i32 2
  %32 = load ptr, ptr %31, align 8, !tbaa !21
  %33 = load i32, ptr %8, align 4, !tbaa !8
  %34 = getelementptr inbounds nuw %"class.icu_77::FieldPositionHandler", ptr %9, i32 0, i32 1
  %35 = load i32, ptr %34, align 8, !tbaa !10
  %36 = add nsw i32 %33, %35
  call void @_ZN6icu_7713FieldPosition11setEndIndexEi(ptr noundef nonnull align 8 dereferenceable(20) %32, i32 noundef %36)
  br label %37

37:                                               ; preds = %23, %19, %4
  ret void
}