; Function Attrs: mustprogress nofree norecurse nosync nounwind willreturn memory(readwrite, inaccessiblemem: none) uwtable
define void @_ZN6icu_7724FieldPositionOnlyHandler12addAttributeEiii(ptr noundef nonnull align 8 captures(none) dereferenceable(26) %0, i32 noundef %1, i32 noundef %2, i32 noundef %3) unnamed_addr #6 align 2 {
  %5 = getelementptr inbounds nuw i8, ptr %0, i64 16
  %6 = load ptr, ptr %5, align 8, !tbaa !16
  %7 = getelementptr inbounds nuw i8, ptr %6, i64 8
  %8 = load i32, ptr %7, align 8, !tbaa !17
  %9 = icmp eq i32 %8, %1
  br i1 %9, label %10, label %22

10:                                               ; preds = %4
  %11 = getelementptr inbounds nuw i8, ptr %0, i64 24
  %12 = load i8, ptr %11, align 8, !tbaa !13
  %.not = icmp eq i8 %12, 0
  %13 = getelementptr inbounds nuw i8, ptr %0, i64 25
  %14 = load i8, ptr %13, align 1
  %.not3 = icmp eq i8 %14, 0
  %or.cond = select i1 %.not, i1 true, i1 %.not3
  br i1 %or.cond, label %15, label %22

15:                                               ; preds = %10
  store i8 1, ptr %13, align 1, !tbaa !15
  %16 = getelementptr inbounds nuw i8, ptr %0, i64 8
  %17 = load i32, ptr %16, align 8, !tbaa !3
  %18 = add nsw i32 %17, %2
  %19 = getelementptr inbounds nuw i8, ptr %6, i64 12
  store i32 %18, ptr %19, align 4, !tbaa !20
  %20 = add nsw i32 %17, %3
  %21 = getelementptr inbounds nuw i8, ptr %6, i64 16
  store i32 %20, ptr %21, align 8, !tbaa !21
  br label %22

22:                                               ; preds = %10, %15, %4
  ret void
}